Certificate:
    Data:
        Version: 3 (0x2)
        Serial Number:
            9d:11:92:d8:f3:1f:1f:22:62:93:17:26:b4:2c:ec:b7
    Signature Algorithm: sha256WithRSAEncryption
        Issuer: CN=HomeLan CA
        Validity
            Not Before: Sep 28 15:46:38 2021 GMT
            Not After : Jan  1 15:46:38 2024 GMT
        Subject: C=PL, ST=Pomorskie, L=Gdansk, O=HomeLan, OU=Servers, CN=home.lan
        Subject Public Key Info:
            Public Key Algorithm: rsaEncryption
                Public-Key: (2048 bit)
                Modulus:
                    00:9f:15:98:3a:9d:53:b8:1c:85:31:1b:93:5e:61:
                    c0:87:3d:22:f8:0b:fd:f1:2e:a4:37:b7:cd:b1:09:
                    e0:20:99:9a:e6:91:8e:94:bf:29:1c:8b:65:4b:12:
                    7f:ef:4a:c4:d0:b3:c1:cf:0d:92:2c:c0:61:38:f4:
                    fc:ab:48:65:1b:13:3b:7b:c4:00:13:9d:af:58:fc:
                    35:b8:a6:32:90:b7:c8:0e:37:b5:c1:b3:f2:39:75:
                    85:38:3d:cb:03:e1:3f:07:cd:ae:cf:62:68:74:59:
                    a3:f7:fb:c5:82:25:b0:a3:40:61:e1:57:c4:e0:94:
                    c7:26:d3:76:64:90:04:51:d5:39:c3:ed:b8:c2:31:
                    de:88:f3:7e:95:6e:ed:5d:da:60:d6:90:a9:eb:cd:
                    53:46:41:98:b7:09:02:fc:4a:ca:f4:ec:62:d6:f4:
                    b3:6c:9c:89:89:f1:fd:25:82:38:e3:54:a8:7a:6b:
                    c2:9c:71:37:dc:73:02:2f:d6:55:ff:e9:f3:2d:08:
                    06:5c:90:fc:06:89:f2:ad:d7:c9:30:5a:86:b6:80:
                    97:d3:30:f5:e5:80:90:42:ae:9a:f4:50:ff:20:96:
                    f4:30:44:72:7b:32:67:d0:40:62:94:e0:1d:27:57:
                    b5:86:79:65:99:c9:52:54:eb:78:dc:7b:7b:6c:47:
                    27:63
                Exponent: 65537 (0x10001)
        X509v3 extensions:
            X509v3 Basic Constraints: 
                CA:FALSE
            X509v3 Subject Key Identifier: 
                EB:A1:83:E6:47:73:FA:CF:68:09:93:55:5D:14:31:91:6F:09:10:38
            X509v3 Authority Key Identifier: 
                keyid:23:D6:E2:A8:40:36:70:66:2B:5F:DD:14:BB:0A:51:1E:5C:41:40:BE
                DirName:/CN=HomeLan CA
                serial:A7:2D:1F:2B:4F:B2:EB:7D

            X509v3 Extended Key Usage: 
                TLS Web Server Authentication
            X509v3 Key Usage: 
                Digital Signature, Key Encipherment
            X509v3 Subject Alternative Name: 
                DNS:home.lan, DNS:*.home.lan
    Signature Algorithm: sha256WithRSAEncryption
         a5:8e:d4:14:fd:d2:de:87:98:95:5e:0f:79:30:3e:3b:c0:da:
         27:c8:eb:fa:87:3f:47:45:74:81:ee:a8:1f:54:42:4f:05:3d:
         f0:48:6e:17:60:3a:9f:f9:92:1d:39:a3:09:30:64:95:33:a5:
         62:cf:0d:6d:2e:e5:23:ae:56:f1:95:3b:80:20:64:63:57:ad:
         d8:3b:32:9a:3b:fb:27:be:e3:62:06:e0:56:b9:d9:8c:51:ab:
         4d:b2:11:00:16:a5:ef:e5:68:f2:e4:f2:f7:1e:06:70:cb:82:
         bc:d5:cd:7e:3d:8d:d5:27:43:33:4d:05:01:41:fd:26:27:97:
         75:25:37:f6:19:ac:0f:ec:c1:c3:80:43:7d:d0:d5:da:c8:45:
         20:e4:12:40:b7:01:d5:26:6d:d3:27:da:3f:b2:7e:8c:29:3c:
         46:99:0f:8d:1f:27:d9:ea:2f:d6:63:ee:c1:74:1c:a3:47:6b:
         55:db:c4:17:09:47:b5:ba:e4:53:87:b9:37:6e:46:f2:44:0c:
         36:cb:f4:3d:d5:b5:91:c0:62:74:fa:ed:df:6a:32:56:03:3f:
         78:ab:79:f8:2f:46:aa:b1:4c:e3:80:a3:e3:81:e2:29:ee:80:
         9f:60:36:af:0d:08:74:2e:ce:0e:da:f7:7f:52:f9:f2:09:1c:
         ca:c9:2d:26
-----BEGIN CERTIFICATE-----
MIIDwTCCAqmgAwIBAgIRAJ0RktjzHx8iYpMXJrQs7LcwDQYJKoZIhvcNAQELBQAw
FTETMBEGA1UEAwwKSG9tZUxhbiBDQTAeFw0yMTA5MjgxNTQ2MzhaFw0yNDAxMDEx
NTQ2MzhaMGkxCzAJBgNVBAYTAlBMMRIwEAYDVQQIDAlQb21vcnNraWUxDzANBgNV
BAcMBkdkYW5zazEQMA4GA1UECgwHSG9tZUxhbjEQMA4GA1UECwwHU2VydmVyczER
MA8GA1UEAwwIaG9tZS5sYW4wggEiMA0GCSqGSIb3DQEBAQUAA4IBDwAwggEKAoIB
AQCfFZg6nVO4HIUxG5NeYcCHPSL4C/3xLqQ3t82xCeAgmZrmkY6Uvykci2VLEn/v
SsTQs8HPDZIswGE49PyrSGUbEzt7xAATna9Y/DW4pjKQt8gON7XBs/I5dYU4PcsD
4T8Hza7PYmh0WaP3+8WCJbCjQGHhV8TglMcm03ZkkARR1TnD7bjCMd6I836Vbu1d
2mDWkKnrzVNGQZi3CQL8Ssr07GLW9LNsnImJ8f0lgjjjVKh6a8KccTfccwIv1lX/
6fMtCAZckPwGifKt18kwWoa2gJfTMPXlgJBCrpr0UP8glvQwRHJ7MmfQQGKU4B0n
V7WGeWWZyVJU63jce3tsRydjAgMBAAGjgbcwgbQwCQYDVR0TBAIwADAdBgNVHQ4E
FgQU66GD5kdz+s9oCZNVXRQxkW8JEDgwRQYDVR0jBD4wPIAUI9biqEA2cGYrX90U
uwpRHlxBQL6hGaQXMBUxEzARBgNVBAMMCkhvbWVMYW4gQ0GCCQCnLR8rT7LrfTAT
BgNVHSUEDDAKBggrBgEFBQcDATALBgNVHQ8EBAMCBaAwHwYDVR0RBBgwFoIIaG9t
ZS5sYW6CCiouaG9tZS5sYW4wDQYJKoZIhvcNAQELBQADggEBAKWO1BT90t6HmJVe
D3kwPjvA2ifI6/qHP0dFdIHuqB9UQk8FPfBIbhdgOp/5kh05owkwZJUzpWLPDW0u
5SOuVvGVO4AgZGNXrdg7Mpo7+ye+42IG4Fa52YxRq02yEQAWpe/laPLk8vceBnDL
grzVzX49jdUnQzNNBQFB/SYnl3UlN/YZrA/swcOAQ33Q1drIRSDkEkC3AdUmbdMn
2j+yfowpPEaZD40fJ9nqL9Zj7sF0HKNHa1XbxBcJR7W65FOHuTduRvJEDDbL9D3V
tZHAYnT67d9qMlYDP3irefgvRqqxTOOAo+OB4inugJ9gNq8NCHQuzg7a939S+fIJ
HMrJLSY=
-----END CERTIFICATE-----
